Private-Key: (512 bit)
modulus:
    00:b4:fc:64:b0:c0:27:63:5c:a6:43:66:ac:68:58:
    48:37:d3:f5:a4:fa:af:a7:11:a1:fd:81:a4:7a:9e:
    ff:90:a3:ee:df:ea:ef:11:54:b8:c0:0b:24:b3:6f:
    ff:a8:83:b8:0c:08:cf:03:51:41:14:f0:70:20:ce:
    5f:25:a8:65:7f
publicExponent: 65537 (0x10001)
privateExponent:
    78:aa:da:bb:59:b2:29:36:49:88:20:b9:8c:6c:67:
    e2:09:08:fb:71:44:91:c0:58:df:bb:83:1d:5a:4b:
    0c:74:8f:86:33:95:10:57:7d:32:c0:d3:6c:b8:c5:
    82:b4:ce:d6:28:b9:33:f7:ab:83:63:2d:13:74:95:
    49:37:2f:29
prime1:
    00:ef:dc:c6:18:61:46:8d:be:d3:d1:4b:6f:5c:e3:
    1d:6a:9d:79:d5:b3:24:8c:ce:4c:db:99:d5:0e:70:
    c8:70:fd
prime2:
    00:c1:29:92:34:03:4c:b9:9b:3b:61:09:55:be:c2:
    f8:e2:e5:50:1e:5d:b2:8d:28:0b:d2:af:72:cc:82:
    88:87:2b
exponent1:
    00:db:3c:22:3f:d4:61:85:5b:3f:05:94:7a:54:1f:
    2e:1a:ed:96:97:51:a6:fd:9f:ee:35:e5:d4:0b:df:
    e0:05:0d
exponent2:
    7e:97:c7:18:cd:7c:d0:3b:bb:2b:ba:59:76:bf:03:
    2c:78:cb:0c:4b:ae:04:32:d5:a4:cb:95:7a:10:a6:
    77:a7
coefficient:
    00:b8:f0:d6:99:dc:85:6d:d8:04:c5:92:7e:db:41:
    2e:50:42:d0:f0:37:af:3c:b2:a6:74:92:a0:c9:99:
    47:18:41
Certificate:
    Data:
        Version: 4 (0x3)
        Serial Number: 0 (0x0)
        Signature Algorithm: md5WithRSAEncryption
        Issuer: C=UK, CN=OpenSSL Group
        Validity
            Not Before: Apr 23 06:55:21 2002 GMT
            Not After : Apr 23 06:55:21 2003 GMT
        Subject: C=UK, CN=OpenSSL Group
        Subject Public Key Info:
            Public Key Algorithm: rsaEncryption
            RSA Public Key: (512 bit)
                Modulus (512 bit):
                    00:b4:fc:64:b0:c0:27:63:5c:a6:43:66:ac:68:58:
                    48:37:d3:f5:a4:fa:af:a7:11:a1:fd:81:a4:7a:9e:
                    ff:90:a3:ee:df:ea:ef:11:54:b8:c0:0b:24:b3:6f:
                    ff:a8:83:b8:0c:08:cf:03:51:41:14:f0:70:20:ce:
                    5f:25:a8:65:7f
                Exponent: 65537 (0x10001)
        X509v3 extensions:
            Netscape Cert Type: 
                SSL Server
            Netscape Comment: 
                example comment extension
            Netscape SSL Server Name: 
                libwebserver
    Signature Algorithm: md5WithRSAEncryption
        3e:6a:3c:4a:ec:8b:1f:eb:a8:99:33:d6:e0:f9:f1:a7:70:3c:
        7a:b1:73:ae:34:52:06:d0:be:0b:32:ed:ec:01:27:a5:d6:3c:
        ce:34:38:f9:29:49:c1:0b:0d:9a:74:60:b8:4d:b9:e0:29:ad:
        fd:5b:32:32:3f:3c:e8:93:2d:6a
-----BEGIN RSA PRIVATE KEY-----
MIIBOwIBAAJBALT8ZLDAJ2NcpkNmrGhYSDfT9aT6r6cRof2BpHqe/5Cj7t/q7xFU
uMALJLNv/6iDuAwIzwNRQRTwcCDOXyWoZX8CAwEAAQJAeKrau1myKTZJiCC5jGxn
4gkI+3FEkcBY37uDHVpLDHSPhjOVEFd9MsDTbLjFgrTO1ii5M/erg2MtE3SVSTcv
KQIhAO/cxhhhRo2+09FLb1zjHWqdedWzJIzOTNuZ1Q5wyHD9AiEAwSmSNANMuZs7
YQlVvsL44uVQHl2yjSgL0q9yzIKIhysCIQDbPCI/1GGFWz8FlHpUHy4a7ZaXUab9
n+415dQL3+AFDQIgfpfHGM180Du7K7pZdr8DLHjLDEuuBDLVpMuVehCmd6cCIQC4
8NaZ3IVt2ATFkn7bQS5QQtDwN688sqZ0kqDJmUcYQQ==
-----END RSA PRIVATE KEY-----
-----BEGIN CERTIFICATE-----
MIIBmjCCAUSgAwIBAwIBADANBgkqhkiG9w0BAQQFADAlMQswCQYDVQQGEwJVSzEW
MBQGA1UEAxMNT3BlblNTTCBHcm91cDAeFw0wMjA0MjMwNjU1MjFaFw0wMzA0MjMw
NjU1MjFaMCUxCzAJBgNVBAYTAlVLMRYwFAYDVQQDEw1PcGVuU1NMIEdyb3VwMFww
DQYJKoZIhvcNAQEBBQADSwAwSAJBALT8ZLDAJ2NcpkNmrGhYSDfT9aT6r6cRof2B
pHqe/5Cj7t/q7xFUuMALJLNv/6iDuAwIzwNRQRTwcCDOXyWoZX8CAwEAAaNfMF0w
EQYJYIZIAYb4QgEBBAQDAgZAMCgGCWCGSAGG+EIBDQQbFhlleGFtcGxlIGNvbW1l
bnQgZXh0ZW5zaW9uMB4GCWCGSAGG+EIBDAQRFg93d3cub3BlbnNzbC5vcmcwDQYJ
KoZIhvcNAQEEBQADQQA+ajxK7Isf66iZM9bg+fGncDx6sXOuNFIG0L4LMu3sASel
1jzONDj5KUnBCw2adGC4TbngKa39WzIyPzzoky1q
-----END CERTIFICATE-----
